target datalayout = "e-m:e-p270:32:32-p271:32:32-p272:64:64-i64:64-i128:128-f80:128-n8:16:32:64-S128"
target triple = "x86_64-unknown-linux-gnu"

%"struct.node::AssertionInfo" = type { ptr, ptr, ptr }
%"class.node::crypto::ByteSource" = type { ptr, ptr, i64 }
%"class.std::unique_ptr.313" = type { %"struct.std::__uniq_ptr_data.314" }
%"struct.std::__uniq_ptr_data.314" = type { %"class.std::__uniq_ptr_impl.315" }
%"class.std::__uniq_ptr_impl.315" = type { %"class.std::tuple.316" }
%"class.std::tuple.316" = type { %"struct.std::_Tuple_impl.317" }
%"struct.std::_Tuple_impl.317" = type { %"struct.std::_Head_base.320" }
%"struct.std::_Head_base.320" = type { ptr }

@.str.16 = private unnamed_addr constant [32 x i8] c"../../src/crypto/crypto_util.cc\00", align 1
@_ZZN4node6crypto15SetRsaOaepLabelERKSt10unique_ptrI15evp_pkey_ctx_stNS_15FunctionDeleterIS2_XadL_Z17EVP_PKEY_CTX_freeEEEEERKNS0_10ByteSourceEE4args = internal constant %"struct.node::AssertionInfo" { ptr @.str.86, ptr @.str.87, ptr @.str.88 }, align 8

; Function Attrs: mustprogress nounwind uwtable
define linkonce_odr dso_local noundef nonnull align 8 dereferenceable(8) ptr @_ZNSt10_Head_baseILm0EP15evp_pkey_ctx_stLb0EE7_M_headERKS2_(ptr noundef nonnull align 8 dereferenceable(8) %__b) #4 comdat align 2 {
entry:
  %__b.addr = alloca ptr, align 8
  store ptr %__b, ptr %__b.addr, align 8
  %0 = load ptr, ptr %__b.addr, align 8
  %_M_head_impl = getelementptr inbounds %"struct.std::_Head_base.320", ptr %0, i32 0, i32 0
  ret ptr %_M_head_impl
}

; Function Attrs: mustprogress nounwind uwtable
define linkonce_odr dso_local noundef nonnull align 8 dereferenceable(8) ptr @_ZNSt11_Tuple_implILm0EJP15evp_pkey_ctx_stN4node15FunctionDeleterIS0_XadL_Z17EVP_PKEY_CTX_freeEEEEEE7_M_headERKS5_(ptr noundef nonnull align 8 dereferenceable(8) %__t) #4 comdat align 2 {
entry:
  %__t.addr = alloca ptr, align 8
  store ptr %__t, ptr %__t.addr, align 8
  %0 = load ptr, ptr %__t.addr, align 8
  %call = call noundef nonnull align 8 dereferenceable(8) ptr @_ZNSt10_Head_baseILm0EP15evp_pkey_ctx_stLb0EE7_M_headERKS2_(ptr noundef nonnull align 8 dereferenceable(8) %0) #3
  ret ptr %call
}

; Function Attrs: mustprogress nounwind uwtable
define linkonce_odr dso_local noundef nonnull align 8 dereferenceable(8) ptr @_ZSt12__get_helperILm0EP15evp_pkey_ctx_stJN4node15FunctionDeleterIS0_XadL_Z17EVP_PKEY_CTX_freeEEEEEERKT0_RKSt11_Tuple_implIXT_EJS5_DpT1_EE(ptr noundef nonnull align 8 dereferenceable(8) %__t) #4 comdat {
entry:
  %__t.addr = alloca ptr, align 8
  store ptr %__t, ptr %__t.addr, align 8
  %0 = load ptr, ptr %__t.addr, align 8
  %call = call noundef nonnull align 8 dereferenceable(8) ptr @_ZNSt11_Tuple_implILm0EJP15evp_pkey_ctx_stN4node15FunctionDeleterIS0_XadL_Z17EVP_PKEY_CTX_freeEEEEEE7_M_headERKS5_(ptr noundef nonnull align 8 dereferenceable(8) %0) #3
  ret ptr %call
}

; Function Attrs: mustprogress nounwind uwtable
define linkonce_odr dso_local noundef nonnull align 8 dereferenceable(8) ptr @_ZSt3getILm0EJP15evp_pkey_ctx_stN4node15FunctionDeleterIS0_XadL_Z17EVP_PKEY_CTX_freeEEEEEERKNSt13tuple_elementIXT_ESt5tupleIJDpT0_EEE4typeERKS9_(ptr noundef nonnull align 8 dereferenceable(8) %__t) #4 comdat {
entry:
  %__t.addr = alloca ptr, align 8
  store ptr %__t, ptr %__t.addr, align 8
  %0 = load ptr, ptr %__t.addr, align 8
  %call = call noundef nonnull align 8 dereferenceable(8) ptr @_ZSt12__get_helperILm0EP15evp_pkey_ctx_stJN4node15FunctionDeleterIS0_XadL_Z17EVP_PKEY_CTX_freeEEEEEERKT0_RKSt11_Tuple_implIXT_EJS5_DpT1_EE(ptr noundef nonnull align 8 dereferenceable(8) %0) #3
  ret ptr %call
}

; Function Attrs: mustprogress nounwind uwtable
define linkonce_odr dso_local noundef ptr @_ZNKSt15__uniq_ptr_implI15evp_pkey_ctx_stN4node15FunctionDeleterIS0_XadL_Z17EVP_PKEY_CTX_freeEEEEE6_M_ptrEv(ptr noundef nonnull align 8 dereferenceable(8) %this) #4 comdat align 2 {
entry:
  %this.addr = alloca ptr, align 8
  store ptr %this, ptr %this.addr, align 8
  %this1 = load ptr, ptr %this.addr, align 8
  %_M_t = getelementptr inbounds %"class.std::__uniq_ptr_impl.315", ptr %this1, i32 0, i32 0
  %call = call noundef nonnull align 8 dereferenceable(8) ptr @_ZSt3getILm0EJP15evp_pkey_ctx_stN4node15FunctionDeleterIS0_XadL_Z17EVP_PKEY_CTX_freeEEEEEERKNSt13tuple_elementIXT_ESt5tupleIJDpT0_EEE4typeERKS9_(ptr noundef nonnull align 8 dereferenceable(8) %_M_t) #3
  %0 = load ptr, ptr %call, align 8
  ret ptr %0
}

; Function Attrs: mustprogress nounwind uwtable
define linkonce_odr dso_local noundef ptr @_ZNKSt10unique_ptrI15evp_pkey_ctx_stN4node15FunctionDeleterIS0_XadL_Z17EVP_PKEY_CTX_freeEEEEE3getEv(ptr noundef nonnull align 8 dereferenceable(8) %this) #4 comdat align 2 {
entry:
  %this.addr = alloca ptr, align 8
  store ptr %this, ptr %this.addr, align 8
  %this1 = load ptr, ptr %this.addr, align 8
  %_M_t = getelementptr inbounds %"class.std::unique_ptr.313", ptr %this1, i32 0, i32 0
  %call = call noundef ptr @_ZNKSt15__uniq_ptr_implI15evp_pkey_ctx_stN4node15FunctionDeleterIS0_XadL_Z17EVP_PKEY_CTX_freeEEEEE6_M_ptrEv(ptr noundef nonnull align 8 dereferenceable(8) %_M_t) #3
  ret ptr %call
}

; Function Attrs: mustprogress nounwind uwtable
define linkonce_odr dso_local noundef ptr @_ZNK4node6crypto10ByteSource4dataIvEEPKT_v(ptr noundef nonnull align 8 dereferenceable(24) %this) #4 comdat align 2 {
entry:
  %this.addr = alloca ptr, align 8
  store ptr %this, ptr %this.addr, align 8
  %this1 = load ptr, ptr %this.addr, align 8
  %data_ = getelementptr inbounds %"class.node::crypto::ByteSource", ptr %this1, i32 0, i32 0
  %0 = load ptr, ptr %data_, align 8
  ret ptr %0
}

; Function Attrs: mustprogress nounwind uwtable
define linkonce_odr dso_local noundef i64 @_ZNK4node6crypto10ByteSource4sizeEv(ptr noundef nonnull align 8 dereferenceable(24) %this) #4 comdat align 2 {
entry:
  %this.addr = alloca ptr, align 8
  store ptr %this, ptr %this.addr, align 8
  %this1 = load ptr, ptr %this.addr, align 8
  %size_ = getelementptr inbounds %"class.node::crypto::ByteSource", ptr %this1, i32 0, i32 2
  %0 = load i64, ptr %size_, align 8
  ret i64 %0
}

; Function Attrs: mustprogress nounwind uwtable
define dso_local noundef zeroext i1 @_ZN4node6crypto15SetRsaOaepLabelERKSt10unique_ptrI15evp_pkey_ctx_stNS_15FunctionDeleterIS2_XadL_Z17EVP_PKEY_CTX_freeEEEEERKNS0_10ByteSourceE(ptr noundef nonnull align 8 dereferenceable(8) %ctx, ptr noundef nonnull align 8 dereferenceable(24) %label) #4 {
entry:
  %retval = alloca i1, align 1
  %ctx.addr = alloca ptr, align 8
  %label.addr = alloca ptr, align 8
  %label_copy = alloca ptr, align 8
  %ret = alloca i32, align 4
  store ptr %ctx, ptr %ctx.addr, align 8
  store ptr %label, ptr %label.addr, align 8
  %0 = load ptr, ptr %label.addr, align 8
  %call = call noundef i64 @_ZNK4node6crypto10ByteSource4sizeEv(ptr noundef nonnull align 8 dereferenceable(24) %0)
  %cmp = icmp ne i64 %call, 0
  br i1 %cmp, label %if.then, label %if.end16

if.then:                                          ; preds = %entry
  %1 = load ptr, ptr %label.addr, align 8
  %call1 = call noundef ptr @_ZNK4node6crypto10ByteSource4dataIvEEPKT_v(ptr noundef nonnull align 8 dereferenceable(24) %1)
  %2 = load ptr, ptr %label.addr, align 8
  %call2 = call noundef i64 @_ZNK4node6crypto10ByteSource4sizeEv(ptr noundef nonnull align 8 dereferenceable(24) %2)
  %call3 = call ptr @CRYPTO_memdup(ptr noundef %call1, i64 noundef %call2, ptr noundef @.str.16, i32 noundef 689)
  store ptr %call3, ptr %label_copy, align 8
  br label %do.body

do.body:                                          ; preds = %if.then
  %3 = load ptr, ptr %label_copy, align 8
  %cmp4 = icmp ne ptr %3, null
  %lnot = xor i1 %cmp4, true
  %lnot5 = xor i1 %lnot, true
  %lnot6 = xor i1 %lnot5, true
  br i1 %lnot6, label %if.then7, label %if.end

if.then7:                                         ; preds = %do.body
  br label %do.body8

do.body8:                                         ; preds = %if.then7
  call void @_ZN4node6AssertERKNS_13AssertionInfoE(ptr noundef nonnull align 8 dereferenceable(24) @_ZZN4node6crypto15SetRsaOaepLabelERKSt10unique_ptrI15evp_pkey_ctx_stNS_15FunctionDeleterIS2_XadL_Z17EVP_PKEY_CTX_freeEEEEERKNS0_10ByteSourceEE4args)
  call void @abort() #15
  unreachable

do.end:                                           ; No predecessors!
  br label %if.end

if.end:                                           ; preds = %do.end, %do.body
  br label %do.end9

do.end9:                                          ; preds = %if.end
  %4 = load ptr, ptr %ctx.addr, align 8
  %call10 = call noundef ptr @_ZNKSt10unique_ptrI15evp_pkey_ctx_stN4node15FunctionDeleterIS0_XadL_Z17EVP_PKEY_CTX_freeEEEEE3getEv(ptr noundef nonnull align 8 dereferenceable(8) %4) #3
  %5 = load ptr, ptr %label_copy, align 8
  %6 = load ptr, ptr %label.addr, align 8
  %call11 = call noundef i64 @_ZNK4node6crypto10ByteSource4sizeEv(ptr noundef nonnull align 8 dereferenceable(24) %6)
  %conv = trunc i64 %call11 to i32
  %call12 = call i32 @EVP_PKEY_CTX_set0_rsa_oaep_label(ptr noundef %call10, ptr noundef %5, i32 noundef %conv)
  store i32 %call12, ptr %ret, align 4
  %7 = load i32, ptr %ret, align 4
  %cmp13 = icmp sle i32 %7, 0
  br i1 %cmp13, label %if.then14, label %if.end15

if.then14:                                        ; preds = %do.end9
  %8 = load ptr, ptr %label_copy, align 8
  call void @CRYPTO_free(ptr noundef %8, ptr noundef @.str.16, i32 noundef 694)
  store i1 false, ptr %retval, align 1
  br label %return

if.end15:                                         ; preds = %do.end9
  br label %if.end16

if.end16:                                         ; preds = %if.end15, %entry
  store i1 true, ptr %retval, align 1
  br label %return

return:                                           ; preds = %if.end16, %if.then14
  %9 = load i1, ptr %retval, align 1
  ret i1 %9
}