; Function Attrs: mustprogress nounwind uwtable
define dso_local noundef zeroext i1 @_ZN4node6crypto15SetRsaOaepLabelERKSt10unique_ptrI15evp_pkey_ctx_stNS_15FunctionDeleterIS2_XadL_Z17EVP_PKEY_CTX_freeEEEEERKNS0_10ByteSourceE(ptr nocapture noundef nonnull readonly align 8 dereferenceable(8) %ctx, ptr nocapture noundef nonnull readonly align 8 dereferenceable(24) %label) local_unnamed_addr #4 {
entry:
  %size_.i = getelementptr inbounds i8, ptr %label, i64 16
  %0 = load i64, ptr %size_.i, align 8
  %cmp.not = icmp eq i64 %0, 0
  br i1 %cmp.not, label %return, label %if.then

if.then:                                          ; preds = %entry
  %1 = load ptr, ptr %label, align 8
  %call3 = tail call ptr @CRYPTO_memdup(ptr noundef %1, i64 noundef %0, ptr noundef nonnull @.str.16, i32 noundef 689) #25
  %cmp4.not = icmp eq ptr %call3, null
  br i1 %cmp4.not, label %do.body8, label %do.end9

do.body8:                                         ; preds = %if.then
  tail call void @_ZN4node6AssertERKNS_13AssertionInfoE(ptr noundef nonnull align 8 dereferenceable(24) @_ZZN4node6crypto15SetRsaOaepLabelERKSt10unique_ptrI15evp_pkey_ctx_stNS_15FunctionDeleterIS2_XadL_Z17EVP_PKEY_CTX_freeEEEEERKNS0_10ByteSourceEE4args) #25
  tail call void @abort() #27
  unreachable

do.end9:                                          ; preds = %if.then
  %2 = load ptr, ptr %ctx, align 8
  %3 = load i64, ptr %size_.i, align 8
  %conv = trunc i64 %3 to i32
  %call12 = tail call i32 @EVP_PKEY_CTX_set0_rsa_oaep_label(ptr noundef %2, ptr noundef nonnull %call3, i32 noundef %conv) #25
  %cmp13 = icmp slt i32 %call12, 1
  br i1 %cmp13, label %if.then14, label %return

if.then14:                                        ; preds = %do.end9
  tail call void @CRYPTO_free(ptr noundef nonnull %call3, ptr noundef nonnull @.str.16, i32 noundef 694) #25
  br label %return

return:                                           ; preds = %entry, %do.end9, %if.then14
  %retval.0 = phi i1 [ false, %if.then14 ], [ true, %do.end9 ], [ true, %entry ]
  ret i1 %retval.0
}